	.file	"Lab5_Grp8_code.cpp"
	.text
.lcomm _ZStL8__ioinit,1,1
	.globl	_Z20manhattanComputation6helperS_
	.def	_Z20manhattanComputation6helperS_;	.scl	2;	.type	32;	.endef
	.seh_proc	_Z20manhattanComputation6helperS_
_Z20manhattanComputation6helperS_:
.LFB1840:
	pushq	%rbp
	.seh_pushreg	%rbp
	pushq	%rsi
	.seh_pushreg	%rsi
	pushq	%rbx
	.seh_pushreg	%rbx
	leaq	(%rsp), %rbp
	.seh_setframe	%rbp, 0
	.seh_endprologue
	movq	%rcx, %rbx
	movq	%rdx, %rsi
	movl	(%rsi), %edx
	movl	(%rbx), %eax
	movl	%edx, %ecx
	subl	%eax, %ecx
	movl	4(%rsi), %edx
	movl	4(%rbx), %eax
	subl	%eax, %edx
	addl	%edx, %ecx
	movl	8(%rsi), %edx
	movl	8(%rbx), %eax
	subl	%eax, %edx
	leal	(%rcx,%rdx), %eax
	popq	%rbx
	popq	%rsi
	popq	%rbp
	ret
	.seh_endproc
	.def	__main;	.scl	2;	.type	32;	.endef
	.globl	main
	.def	main;	.scl	2;	.type	32;	.endef
	.seh_proc	main
main:
.LFB1841:
	pushq	%rbp
	.seh_pushreg	%rbp
	pushq	%r13
	.seh_pushreg	%r13
	pushq	%r12
	.seh_pushreg	%r12
	pushq	%rdi
	.seh_pushreg	%rdi
	pushq	%rsi
	.seh_pushreg	%rsi
	pushq	%rbx
	.seh_pushreg	%rbx
	subq	$120, %rsp
	.seh_stackalloc	120
	leaq	112(%rsp), %rbp
	.seh_setframe	%rbp, 112
	.seh_endprologue
	call	__main
	leaq	-36(%rbp), %rax
	movq	%rax, %rdx
	movq	.refptr._ZSt3cin(%rip), %rax
	movq	%rax, %rcx
	call	_ZNSirsERi
	movl	$0, -4(%rbp)
	jmp	.L4
.L9:
	movq	%rsp, %rax
	movq	%rax, %rbx
	leaq	-40(%rbp), %rax
	movq	%rax, %rdx
	movq	.refptr._ZSt3cin(%rip), %rax
	movq	%rax, %rcx
	call	_ZNSirsERi
	movl	-40(%rbp), %ecx
	movslq	%ecx, %rax
	subq	$1, %rax
	movq	%rax, -24(%rbp)
	movslq	%ecx, %rax
	movq	%rax, %rsi
	movl	$0, %edi
	imulq	$96, %rdi, %rdx
	imulq	$0, %rsi, %rax
	leaq	(%rdx,%rax), %r8
	movl	$96, %eax
	mulq	%rsi
	addq	%rdx, %r8
	movq	%r8, %rdx
	movslq	%ecx, %rdx
	movq	%rdx, %rax
	addq	%rax, %rax
	addq	%rdx, %rax
	salq	$2, %rax
	movslq	%ecx, %rax
	movq	%rax, %r12
	movl	$0, %r13d
	imulq	$96, %r13, %rdx
	imulq	$0, %r12, %rax
	leaq	(%rdx,%rax), %r8
	movl	$96, %eax
	mulq	%r12
	addq	%rdx, %r8
	movq	%r8, %rdx
	movslq	%ecx, %rdx
	movq	%rdx, %rax
	addq	%rax, %rax
	addq	%rdx, %rax
	salq	$2, %rax
	addq	$15, %rax
	shrq	$4, %rax
	salq	$4, %rax
	call	___chkstk_ms
	subq	%rax, %rsp
	leaq	32(%rsp), %rax
	addq	$3, %rax
	shrq	$2, %rax
	salq	$2, %rax
	movq	%rax, -32(%rbp)
	movl	$0, -8(%rbp)
	jmp	.L5
.L6:
	movl	-8(%rbp), %eax
	movslq	%eax, %rdx
	movq	%rdx, %rax
	addq	%rax, %rax
	addq	%rdx, %rax
	salq	$2, %rax
	movq	-32(%rbp), %rdx
	addq	%rdx, %rax
	movq	%rax, %rdx
	movq	.refptr._ZSt3cin(%rip), %rax
	movq	%rax, %rcx
	call	_ZNSirsERi
	movq	%rax, %rcx
	movl	-8(%rbp), %eax
	movslq	%eax, %rdx
	movq	%rdx, %rax
	addq	%rax, %rax
	addq	%rdx, %rax
	salq	$2, %rax
	movq	-32(%rbp), %rdx
	addq	%rdx, %rax
	addq	$4, %rax
	movq	%rax, %rdx
	call	_ZNSirsERi
	movq	%rax, %rcx
	movl	-8(%rbp), %eax
	movslq	%eax, %rdx
	movq	%rdx, %rax
	addq	%rax, %rax
	addq	%rdx, %rax
	salq	$2, %rax
	movq	-32(%rbp), %rdx
	addq	%rdx, %rax
	addq	$8, %rax
	movq	%rax, %rdx
	call	_ZNSirsERi
	addl	$1, -8(%rbp)
.L5:
	movl	-40(%rbp), %eax
	cmpl	%eax, -8(%rbp)
	jl	.L6
	movl	$0, -12(%rbp)
	jmp	.L7
.L8:
	movl	-12(%rbp), %eax
	leal	1(%rax), %r8d
	movq	-32(%rbp), %rcx
	movl	-12(%rbp), %eax
	movslq	%eax, %rdx
	movq	%rdx, %rax
	addq	%rax, %rax
	addq	%rdx, %rax
	salq	$2, %rax
	addq	%rcx, %rax
	movq	(%rax), %rdx
	movq	%rdx, -64(%rbp)
	movl	8(%rax), %eax
	movl	%eax, -56(%rbp)
	movq	-32(%rbp), %rcx
	movslq	%r8d, %rdx
	movq	%rdx, %rax
	addq	%rax, %rax
	addq	%rdx, %rax
	salq	$2, %rax
	addq	%rcx, %rax
	movq	(%rax), %rdx
	movq	%rdx, -80(%rbp)
	movl	8(%rax), %eax
	movl	%eax, -72(%rbp)
	leaq	-80(%rbp), %rdx
	leaq	-64(%rbp), %rax
	movq	%rax, %rcx
	call	_Z20manhattanComputation6helperS_
	movl	%eax, %edx
	movq	.refptr._ZSt4cout(%rip), %rax
	movq	%rax, %rcx
	call	_ZNSolsEi
	movq	%rax, %rcx
	movq	.refptr._ZSt4endlIcSt11char_traitsIcEERSt13basic_ostreamIT_T0_ES6_(%rip), %rax
	movq	%rax, %rdx
	call	_ZNSolsEPFRSoS_E
	addl	$1, -12(%rbp)
.L7:
	movl	-40(%rbp), %eax
	subl	$1, %eax
	cmpl	%eax, -12(%rbp)
	jl	.L8
	movq	.refptr._ZSt4endlIcSt11char_traitsIcEERSt13basic_ostreamIT_T0_ES6_(%rip), %rax
	movq	%rax, %rdx
	movq	.refptr._ZSt4cout(%rip), %rax
	movq	%rax, %rcx
	call	_ZNSolsEPFRSoS_E
	movq	%rbx, %rsp
	addl	$1, -4(%rbp)
.L4:
	movl	-36(%rbp), %eax
	cmpl	%eax, -4(%rbp)
	jl	.L9
	movl	$0, %eax
	leaq	8(%rbp), %rsp
	popq	%rbx
	popq	%rsi
	popq	%rdi
	popq	%r12
	popq	%r13
	popq	%rbp
	ret
	.seh_endproc
	.def	__tcf_0;	.scl	3;	.type	32;	.endef
	.seh_proc	__tcf_0
__tcf_0:
.LFB2371:
	pushq	%rbp
	.seh_pushreg	%rbp
	movq	%rsp, %rbp
	.seh_setframe	%rbp, 0
	subq	$32, %rsp
	.seh_stackalloc	32
	.seh_endprologue
	leaq	_ZStL8__ioinit(%rip), %rax
	movq	%rax, %rcx
	call	_ZNSt8ios_base4InitD1Ev
	nop
	addq	$32, %rsp
	popq	%rbp
	ret
	.seh_endproc
	.def	_Z41__static_initialization_and_destruction_0ii;	.scl	3;	.type	32;	.endef
	.seh_proc	_Z41__static_initialization_and_destruction_0ii
_Z41__static_initialization_and_destruction_0ii:
.LFB2370:
	pushq	%rbp
	.seh_pushreg	%rbp
	movq	%rsp, %rbp
	.seh_setframe	%rbp, 0
	subq	$32, %rsp
	.seh_stackalloc	32
	.seh_endprologue
	movl	%ecx, 16(%rbp)
	movl	%edx, 24(%rbp)
	cmpl	$1, 16(%rbp)
	jne	.L14
	cmpl	$65535, 24(%rbp)
	jne	.L14
	leaq	_ZStL8__ioinit(%rip), %rax
	movq	%rax, %rcx
	call	_ZNSt8ios_base4InitC1Ev
	leaq	__tcf_0(%rip), %rax
	movq	%rax, %rcx
	call	atexit
.L14:
	nop
	addq	$32, %rsp
	popq	%rbp
	ret
	.seh_endproc
	.def	_GLOBAL__sub_I__Z20manhattanComputation6helperS_;	.scl	3;	.type	32;	.endef
	.seh_proc	_GLOBAL__sub_I__Z20manhattanComputation6helperS_
_GLOBAL__sub_I__Z20manhattanComputation6helperS_:
.LFB2372:
	pushq	%rbp
	.seh_pushreg	%rbp
	movq	%rsp, %rbp
	.seh_setframe	%rbp, 0
	subq	$32, %rsp
	.seh_stackalloc	32
	.seh_endprologue
	movl	$65535, %edx
	movl	$1, %ecx
	call	_Z41__static_initialization_and_destruction_0ii
	nop
	addq	$32, %rsp
	popq	%rbp
	ret
	.seh_endproc
	.section	.ctors,"w"
	.align 8
	.quad	_GLOBAL__sub_I__Z20manhattanComputation6helperS_
	.ident	"GCC: (Rev10, Built by MSYS2 project) 12.2.0"
	.def	_ZNSirsERi;	.scl	2;	.type	32;	.endef
	.def	_ZNSolsEi;	.scl	2;	.type	32;	.endef
	.def	_ZNSolsEPFRSoS_E;	.scl	2;	.type	32;	.endef
	.def	_ZNSt8ios_base4InitD1Ev;	.scl	2;	.type	32;	.endef
	.def	_ZNSt8ios_base4InitC1Ev;	.scl	2;	.type	32;	.endef
	.def	atexit;	.scl	2;	.type	32;	.endef
	.section	.rdata$.refptr._ZSt4endlIcSt11char_traitsIcEERSt13basic_ostreamIT_T0_ES6_, "dr"
	.globl	.refptr._ZSt4endlIcSt11char_traitsIcEERSt13basic_ostreamIT_T0_ES6_
	.linkonce	discard
.refptr._ZSt4endlIcSt11char_traitsIcEERSt13basic_ostreamIT_T0_ES6_:
	.quad	_ZSt4endlIcSt11char_traitsIcEERSt13basic_ostreamIT_T0_ES6_
	.section	.rdata$.refptr._ZSt4cout, "dr"
	.globl	.refptr._ZSt4cout
	.linkonce	discard
.refptr._ZSt4cout:
	.quad	_ZSt4cout
	.section	.rdata$.refptr._ZSt3cin, "dr"
	.globl	.refptr._ZSt3cin
	.linkonce	discard
.refptr._ZSt3cin:
	.quad	_ZSt3cin
